target datalayout = "e-m:e-p270:32:32-p271:32:32-p272:64:64-i64:64-i128:128-f80:128-n8:16:32:64-S128"
target triple = "x86_64-pc-linux-gnu"

%struct.timespec = type { i64, i64 }
%struct.Vec_Int_t_ = type { i32, i32, ptr }
%struct.Gia_Man_t_ = type { ptr, ptr, i32, i32, i32, i32, ptr, ptr, i32, i32, i32, ptr, ptr, %struct.Vec_Int_t_, %struct.Vec_Int_t_, i32, i32, i32, %struct.Vec_Int_t_, ptr, ptr, ptr, i32, i32, i32, i32, ptr, ptr, ptr, ptr, ptr, i32, i32, ptr, i32, ptr, ptr, ptr, ptr, ptr, ptr, ptr, ptr, ptr, ptr, ptr, ptr, ptr, ptr, ptr, ptr, ptr, ptr, %struct.Vec_Int_t_, %struct.Vec_Int_t_, ptr, ptr, ptr, ptr, ptr, ptr, ptr, ptr, ptr, ptr, ptr, ptr, ptr, ptr, ptr, ptr, ptr, ptr, ptr, ptr, ptr, i32, float, float, ptr, ptr, i32, ptr, ptr, ptr, ptr, ptr, ptr, ptr, ptr, ptr, ptr, ptr, ptr, ptr, ptr, ptr, i64, i64, ptr, ptr, i32, i32, i32, i32, i32, i32, i32, i32, i32, i32, i32, i32, ptr, ptr, ptr, ptr, ptr, ptr, ptr, ptr, i32, i32, i32, ptr, i32, i32, ptr, ptr, ptr, ptr, ptr, ptr, i32, i32, ptr, %struct.Vec_Int_t_, %struct.Vec_Int_t_, %struct.Vec_Int_t_, ptr, ptr, ptr, i32, i32, i32, i32, ptr, ptr, ptr, ptr, ptr }
%struct.Gia_Obj_t_ = type <{ i64, i32 }>

@.str.29 = private unnamed_addr constant [6 x i8] c"Time1\00", align 1
@.str.30 = private unnamed_addr constant [6 x i8] c"Time2\00", align 1
@.str.31 = private unnamed_addr constant [22 x i8] c"Verification passed.\0A\00", align 1
@.str.32 = private unnamed_addr constant [22 x i8] c"Verification FAILED.\0A\00", align 1
@.str.39 = private unnamed_addr constant [5 x i8] c"%s =\00", align 1
@.str.40 = private unnamed_addr constant [11 x i8] c"%9.2f sec\0A\00", align 1

; Function Attrs: inlinehint mustprogress nounwind uwtable
define internal noundef i32 @_ZL15Gia_ObjFaninId0P10Gia_Obj_t_i(ptr noundef %0, i32 noundef %1) #4 {
  %3 = alloca ptr, align 8
  %4 = alloca i32, align 4
  store ptr %0, ptr %3, align 8, !tbaa !202
  store i32 %1, ptr %4, align 4, !tbaa !12
  %5 = load i32, ptr %4, align 4, !tbaa !12
  %6 = load ptr, ptr %3, align 8, !tbaa !202
  %7 = load i64, ptr %6, align 4
  %8 = and i64 %7, 536870911
  %9 = trunc i64 %8 to i32
  %10 = sub nsw i32 %5, %9
  ret i32 %10
}

; Function Attrs: inlinehint mustprogress nounwind uwtable
define internal noundef i32 @_ZL9Gia_ObjIdP10Gia_Man_t_P10Gia_Obj_t_(ptr noundef %0, ptr noundef %1) #4 {
  %3 = alloca ptr, align 8
  %4 = alloca ptr, align 8
  store ptr %0, ptr %3, align 8, !tbaa !144
  store ptr %1, ptr %4, align 8, !tbaa !202
  %5 = load ptr, ptr %4, align 8, !tbaa !202
  %6 = load ptr, ptr %3, align 8, !tbaa !144
  %7 = getelementptr inbounds nuw %struct.Gia_Man_t_, ptr %6, i32 0, i32 6
  %8 = load ptr, ptr %7, align 8, !tbaa !203
  %9 = ptrtoint ptr %5 to i64
  %10 = ptrtoint ptr %8 to i64
  %11 = sub i64 %9, %10
  %12 = sdiv exact i64 %11, 12
  %13 = trunc i64 %12 to i32
  ret i32 %13
}

; Function Attrs: inlinehint mustprogress nounwind uwtable
define internal noundef ptr @_ZL10Gia_ManObjP10Gia_Man_t_i(ptr noundef %0, i32 noundef %1) #4 {
  %3 = alloca ptr, align 8
  %4 = alloca i32, align 4
  store ptr %0, ptr %3, align 8, !tbaa !144
  store i32 %1, ptr %4, align 4, !tbaa !12
  %5 = load ptr, ptr %3, align 8, !tbaa !144
  %6 = getelementptr inbounds nuw %struct.Gia_Man_t_, ptr %5, i32 0, i32 6
  %7 = load ptr, ptr %6, align 8, !tbaa !203
  %8 = load i32, ptr %4, align 4, !tbaa !12
  %9 = sext i32 %8 to i64
  %10 = getelementptr inbounds %struct.Gia_Obj_t_, ptr %7, i64 %9
  ret ptr %10
}

; Function Attrs: inlinehint mustprogress nounwind uwtable
define internal noundef i32 @_ZL12Vec_IntEntryP10Vec_Int_t_i(ptr noundef %0, i32 noundef %1) #4 {
  %3 = alloca ptr, align 8
  %4 = alloca i32, align 4
  store ptr %0, ptr %3, align 8, !tbaa !156
  store i32 %1, ptr %4, align 4, !tbaa !12
  %5 = load ptr, ptr %3, align 8, !tbaa !156
  %6 = getelementptr inbounds nuw %struct.Vec_Int_t_, ptr %5, i32 0, i32 2
  %7 = load ptr, ptr %6, align 8, !tbaa !162
  %8 = load i32, ptr %4, align 4, !tbaa !12
  %9 = sext i32 %8 to i64
  %10 = getelementptr inbounds i32, ptr %7, i64 %9
  %11 = load i32, ptr %10, align 4, !tbaa !12
  ret i32 %11
}

; Function Attrs: mustprogress nounwind uwtable
define void @_Z20glucose2_solver_stopPN6Gluco210SimpSolverE(ptr noundef %0) #0 {
  %2 = alloca ptr, align 8
  store ptr %0, ptr %2, align 8, !tbaa !3
  %3 = load ptr, ptr %2, align 8, !tbaa !3
  %4 = icmp eq ptr %3, null
  br i1 %4, label %9, label %5

5:                                                ; preds = %1
  %6 = load ptr, ptr %3, align 8, !tbaa !8
  %7 = getelementptr inbounds ptr, ptr %6, i64 1
  %8 = load ptr, ptr %7, align 8
  call void %8(ptr noundef nonnull align 8 dereferenceable(1684) %3) #15
  br label %9

9:                                                ; preds = %5, %1
  ret void
}

; Function Attrs: inlinehint mustprogress nounwind uwtable
define internal noundef i32 @_ZL11Abc_Var2Litii(i32 noundef %0, i32 noundef %1) #4 {
  %3 = alloca i32, align 4
  %4 = alloca i32, align 4
  store i32 %0, ptr %3, align 4, !tbaa !12
  store i32 %1, ptr %4, align 4, !tbaa !12
  %5 = load i32, ptr %3, align 4, !tbaa !12
  %6 = load i32, ptr %3, align 4, !tbaa !12
  %7 = add nsw i32 %5, %6
  %8 = load i32, ptr %4, align 4, !tbaa !12
  %9 = add nsw i32 %7, %8
  ret i32 %9
}

; Function Attrs: inlinehint mustprogress nounwind uwtable
define internal noundef i32 @_ZL14Gia_ObjFaninC0P10Gia_Obj_t_(ptr noundef %0) #4 {
  %2 = alloca ptr, align 8
  store ptr %0, ptr %2, align 8, !tbaa !202
  %3 = load ptr, ptr %2, align 8, !tbaa !202
  %4 = load i64, ptr %3, align 4
  %5 = lshr i64 %4, 29
  %6 = and i64 %5, 1
  %7 = trunc i64 %6 to i32
  ret i32 %7
}

; Function Attrs: inlinehint mustprogress nounwind uwtable
define internal noundef i32 @_ZL16Gia_ObjFaninId0pP10Gia_Man_t_P10Gia_Obj_t_(ptr noundef %0, ptr noundef %1) #4 {
  %3 = alloca ptr, align 8
  %4 = alloca ptr, align 8
  store ptr %0, ptr %3, align 8, !tbaa !144
  store ptr %1, ptr %4, align 8, !tbaa !202
  %5 = load ptr, ptr %4, align 8, !tbaa !202
  %6 = load ptr, ptr %3, align 8, !tbaa !144
  %7 = load ptr, ptr %4, align 8, !tbaa !202
  %8 = call noundef i32 @_ZL9Gia_ObjIdP10Gia_Man_t_P10Gia_Obj_t_(ptr noundef %6, ptr noundef %7)
  %9 = call noundef i32 @_ZL15Gia_ObjFaninId0P10Gia_Obj_t_i(ptr noundef %5, i32 noundef %8)
  ret i32 %9
}

; Function Attrs: inlinehint mustprogress nounwind uwtable
define internal noundef ptr @_ZL9Gia_ManCoP10Gia_Man_t_i(ptr noundef %0, i32 noundef %1) #4 {
  %3 = alloca ptr, align 8
  %4 = alloca i32, align 4
  store ptr %0, ptr %3, align 8, !tbaa !144
  store i32 %1, ptr %4, align 4, !tbaa !12
  %5 = load ptr, ptr %3, align 8, !tbaa !144
  %6 = load ptr, ptr %3, align 8, !tbaa !144
  %7 = getelementptr inbounds nuw %struct.Gia_Man_t_, ptr %6, i32 0, i32 12
  %8 = load ptr, ptr %7, align 8, !tbaa !200
  %9 = load i32, ptr %4, align 4, !tbaa !12
  %10 = call noundef i32 @_ZL12Vec_IntEntryP10Vec_Int_t_i(ptr noundef %8, i32 noundef %9)
  %11 = call noundef ptr @_ZL10Gia_ManObjP10Gia_Man_t_i(ptr noundef %5, i32 noundef %10)
  ret ptr %11
}

; Function Attrs: mustprogress nounwind uwtable
define noundef ptr @_Z21glucose2_solver_startv() #0 {
  %1 = alloca ptr, align 8
  call void @llvm.lifetime.start.p0(i64 8, ptr %1) #15
  %2 = call noalias noundef nonnull ptr @_Znwm(i64 noundef 1688) #16
  call void @_ZN6Gluco210SimpSolverC1Ev(ptr noundef nonnull align 8 dereferenceable(1684) %2)
  store ptr %2, ptr %1, align 8, !tbaa !3
  %3 = load ptr, ptr %1, align 8, !tbaa !3
  call void @_ZN6Gluco26Solver18setIncrementalModeEv(ptr noundef nonnull align 8 dereferenceable(1416) %3)
  %4 = load ptr, ptr %1, align 8, !tbaa !3
  call void @llvm.lifetime.end.p0(i64 8, ptr %1) #15
  ret ptr %4
}

; Function Attrs: mustprogress nounwind uwtable
define void @bmcg2_sat_solver_stop(ptr noundef %0) #0 {
  %2 = alloca ptr, align 8
  store ptr %0, ptr %2, align 8, !tbaa !30
  %3 = load ptr, ptr %2, align 8, !tbaa !30
  call void @_Z20glucose2_solver_stopPN6Gluco210SimpSolverE(ptr noundef %3)
  ret void
}

; Function Attrs: inlinehint mustprogress nounwind uwtable
define internal void @_ZL13Abc_PrintTimeiPKcl(i32 noundef %0, ptr noundef %1, i64 noundef %2) #4 {
  %4 = alloca i32, align 4
  %5 = alloca ptr, align 8
  %6 = alloca i64, align 8
  store i32 %0, ptr %4, align 4, !tbaa !12
  store ptr %1, ptr %5, align 8, !tbaa !126
  store i64 %2, ptr %6, align 8, !tbaa !96
  %7 = load ptr, ptr %5, align 8, !tbaa !126
  call void (i32, ptr, ...) @_ZL9Abc_PrintiPKcz(i32 noundef 1, ptr noundef @.str.39, ptr noundef %7)
  %8 = load i64, ptr %6, align 8, !tbaa !96
  %9 = sitofp i64 %8 to double
  %10 = fmul double 1.000000e+00, %9
  %11 = fdiv double %10, 1.000000e+06
  call void (i32, ptr, ...) @_ZL9Abc_PrintiPKcz(i32 noundef 1, ptr noundef @.str.40, double noundef %11)
  ret void
}

; Function Attrs: inlinehint mustprogress nounwind uwtable
define internal noundef i32 @_ZL17Gia_ObjFaninLit0pP10Gia_Man_t_P10Gia_Obj_t_(ptr noundef %0, ptr noundef %1) #4 {
  %3 = alloca ptr, align 8
  %4 = alloca ptr, align 8
  store ptr %0, ptr %3, align 8, !tbaa !144
  store ptr %1, ptr %4, align 8, !tbaa !202
  %5 = load ptr, ptr %3, align 8, !tbaa !144
  %6 = load ptr, ptr %4, align 8, !tbaa !202
  %7 = call noundef i32 @_ZL16Gia_ObjFaninId0pP10Gia_Man_t_P10Gia_Obj_t_(ptr noundef %5, ptr noundef %6)
  %8 = load ptr, ptr %4, align 8, !tbaa !202
  %9 = call noundef i32 @_ZL14Gia_ObjFaninC0P10Gia_Obj_t_(ptr noundef %8)
  %10 = call noundef i32 @_ZL11Abc_Var2Litii(i32 noundef %7, i32 noundef %9)
  ret i32 %10
}

; Function Attrs: inlinehint mustprogress nounwind uwtable
define internal noundef ptr @_ZL9Gia_ManPoP10Gia_Man_t_i(ptr noundef %0, i32 noundef %1) #4 {
  %3 = alloca ptr, align 8
  %4 = alloca i32, align 4
  store ptr %0, ptr %3, align 8, !tbaa !144
  store i32 %1, ptr %4, align 4, !tbaa !12
  %5 = load ptr, ptr %3, align 8, !tbaa !144
  %6 = load i32, ptr %4, align 4, !tbaa !12
  %7 = call noundef ptr @_ZL9Gia_ManCoP10Gia_Man_t_i(ptr noundef %5, i32 noundef %6)
  ret ptr %7
}

; Function Attrs: inlinehint mustprogress nounwind uwtable
define internal noundef i64 @_ZL9Abc_Clockv() #4 {
  %1 = alloca i64, align 8
  %2 = alloca %struct.timespec, align 8
  %3 = alloca i32, align 4
  %4 = alloca i64, align 8
  call void @llvm.lifetime.start.p0(i64 16, ptr %2) #15
  %5 = call i32 @clock_gettime(i32 noundef 1, ptr noundef %2) #15
  %6 = icmp slt i32 %5, 0
  br i1 %6, label %7, label %8

7:                                                ; preds = %0
  store i64 -1, ptr %1, align 8
  store i32 1, ptr %3, align 4
  br label %19

8:                                                ; preds = %0
  call void @llvm.lifetime.start.p0(i64 8, ptr %4) #15
  %9 = getelementptr inbounds nuw %struct.timespec, ptr %2, i32 0, i32 0
  %10 = load i64, ptr %9, align 8, !tbaa !141
  %11 = mul nsw i64 %10, 1000000
  store i64 %11, ptr %4, align 8, !tbaa !96
  %12 = getelementptr inbounds nuw %struct.timespec, ptr %2, i32 0, i32 1
  %13 = load i64, ptr %12, align 8, !tbaa !143
  %14 = mul nsw i64 %13, 1000000
  %15 = sdiv i64 %14, 1000000000
  %16 = load i64, ptr %4, align 8, !tbaa !96
  %17 = add nsw i64 %16, %15
  store i64 %17, ptr %4, align 8, !tbaa !96
  %18 = load i64, ptr %4, align 8, !tbaa !96
  store i64 %18, ptr %1, align 8
  store i32 1, ptr %3, align 4
  call void @llvm.lifetime.end.p0(i64 8, ptr %4) #15
  br label %19

19:                                               ; preds = %8, %7
  call void @llvm.lifetime.end.p0(i64 16, ptr %2) #15
  %20 = load i64, ptr %1, align 8
  ret i64 %20
}

; Function Attrs: mustprogress nounwind uwtable
define ptr @bmcg2_sat_solver_start() #0 {
  %1 = call noundef ptr @_Z21glucose2_solver_startv()
  ret ptr %1
}

; Function Attrs: mustprogress nounwind uwtable
define void @_Z24Glucose2_QuantifyAigTestP10Gia_Man_t_(ptr noundef %0) #0 {
  %2 = alloca ptr, align 8
  %3 = alloca [3 x ptr], align 16
  %4 = alloca i64, align 8
  %5 = alloca i32, align 4
  %6 = alloca i64, align 8
  %7 = alloca i64, align 8
  %8 = alloca i32, align 4
  %9 = alloca i64, align 8
  store ptr %0, ptr %2, align 8, !tbaa !144
  call void @llvm.lifetime.start.p0(i64 24, ptr %3) #15
  %10 = call ptr @bmcg2_sat_solver_start()
  store ptr %10, ptr %3, align 8, !tbaa !30
  %11 = getelementptr inbounds ptr, ptr %3, i64 1
  %12 = call ptr @bmcg2_sat_solver_start()
  store ptr %12, ptr %11, align 8, !tbaa !30
  %13 = getelementptr inbounds ptr, ptr %3, i64 2
  %14 = call ptr @bmcg2_sat_solver_start()
  store ptr %14, ptr %13, align 8, !tbaa !30
  call void @llvm.lifetime.start.p0(i64 8, ptr %4) #15
  %15 = call noundef i64 @_ZL9Abc_Clockv()
  store i64 %15, ptr %4, align 8, !tbaa !96
  call void @llvm.lifetime.start.p0(i64 4, ptr %5) #15
  %16 = getelementptr inbounds [3 x ptr], ptr %3, i64 0, i64 0
  %17 = load ptr, ptr %2, align 8, !tbaa !144
  %18 = load ptr, ptr %2, align 8, !tbaa !144
  %19 = load ptr, ptr %2, align 8, !tbaa !144
  %20 = call noundef ptr @_ZL9Gia_ManPoP10Gia_Man_t_i(ptr noundef %19, i32 noundef 0)
  %21 = call noundef i32 @_ZL17Gia_ObjFaninLit0pP10Gia_Man_t_P10Gia_Obj_t_(ptr noundef %18, ptr noundef %20)
  %22 = call i32 @bmcg2_sat_solver_quantify(ptr noundef %16, ptr noundef %17, i32 noundef %21, i32 noundef 0, ptr noundef @_Z18Gia_ManCiIsToKeep2Pvi, ptr noundef null, ptr noundef null)
  store i32 %22, ptr %5, align 4, !tbaa !12
  call void @llvm.lifetime.start.p0(i64 8, ptr %6) #15
  %23 = call noundef i64 @_ZL9Abc_Clockv()
  %24 = load i64, ptr %4, align 8, !tbaa !96
  %25 = sub nsw i64 %23, %24
  store i64 %25, ptr %6, align 8, !tbaa !96
  call void @llvm.lifetime.start.p0(i64 8, ptr %7) #15
  %26 = call noundef i64 @_ZL9Abc_Clockv()
  store i64 %26, ptr %7, align 8, !tbaa !96
  call void @llvm.lifetime.start.p0(i64 4, ptr %8) #15
  %27 = load ptr, ptr %2, align 8, !tbaa !144
  %28 = load ptr, ptr %2, align 8, !tbaa !144
  %29 = load ptr, ptr %2, align 8, !tbaa !144
  %30 = call noundef ptr @_ZL9Gia_ManPoP10Gia_Man_t_i(ptr noundef %29, i32 noundef 0)
  %31 = call noundef i32 @_ZL17Gia_ObjFaninLit0pP10Gia_Man_t_P10Gia_Obj_t_(ptr noundef %28, ptr noundef %30)
  %32 = call noundef i32 @_Z26bmcg2_sat_solver_quantify2P10Gia_Man_t_iiPFiPviES1_P10Vec_Int_t_(ptr noundef %27, i32 noundef %31, i32 noundef 0, ptr noundef @_Z18Gia_ManCiIsToKeep2Pvi, ptr noundef null, ptr noundef null)
  store i32 %32, ptr %8, align 4, !tbaa !12
  call void @llvm.lifetime.start.p0(i64 8, ptr %9) #15
  %33 = call noundef i64 @_ZL9Abc_Clockv()
  %34 = load i64, ptr %7, align 8, !tbaa !96
  %35 = sub nsw i64 %33, %34
  store i64 %35, ptr %9, align 8, !tbaa !96
  %36 = load i64, ptr %6, align 8, !tbaa !96
  call void @_ZL13Abc_PrintTimeiPKcl(i32 noundef 1, ptr noundef @.str.29, i64 noundef %36)
  %37 = load i64, ptr %9, align 8, !tbaa !96
  call void @_ZL13Abc_PrintTimeiPKcl(i32 noundef 1, ptr noundef @.str.30, i64 noundef %37)
  %38 = getelementptr inbounds [3 x ptr], ptr %3, i64 0, i64 2
  %39 = load ptr, ptr %38, align 16, !tbaa !30
  %40 = load ptr, ptr %2, align 8, !tbaa !144
  %41 = load i32, ptr %5, align 4, !tbaa !12
  %42 = load i32, ptr %8, align 4, !tbaa !12
  %43 = call i32 @bmcg2_sat_solver_equiv_overlap_check(ptr noundef %39, ptr noundef %40, i32 noundef %41, i32 noundef %42, i32 noundef 1)
  %44 = icmp ne i32 %43, 0
  br i1 %44, label %45, label %47

45:                                               ; preds = %1
  %46 = call i32 (ptr, ...) @printf(ptr noundef @.str.31)
  br label %49

47:                                               ; preds = %1
  %48 = call i32 (ptr, ...) @printf(ptr noundef @.str.32)
  br label %49

49:                                               ; preds = %47, %45
  %50 = load ptr, ptr %2, align 8, !tbaa !144
  %51 = load i32, ptr %5, align 4, !tbaa !12
  %52 = call noundef i32 @_ZL15Gia_ManAppendCoP10Gia_Man_t_i(ptr noundef %50, i32 noundef %51)
  %53 = load ptr, ptr %2, align 8, !tbaa !144
  %54 = load i32, ptr %8, align 4, !tbaa !12
  %55 = call noundef i32 @_ZL15Gia_ManAppendCoP10Gia_Man_t_i(ptr noundef %53, i32 noundef %54)
  %56 = getelementptr inbounds [3 x ptr], ptr %3, i64 0, i64 0
  %57 = load ptr, ptr %56, align 16, !tbaa !30
  call void @bmcg2_sat_solver_stop(ptr noundef %57)
  %58 = getelementptr inbounds [3 x ptr], ptr %3, i64 0, i64 1
  %59 = load ptr, ptr %58, align 8, !tbaa !30
  call void @bmcg2_sat_solver_stop(ptr noundef %59)
  %60 = getelementptr inbounds [3 x ptr], ptr %3, i64 0, i64 2
  %61 = load ptr, ptr %60, align 16, !tbaa !30
  call void @bmcg2_sat_solver_stop(ptr noundef %61)
  call void @llvm.lifetime.end.p0(i64 8, ptr %9) #15
  call void @llvm.lifetime.end.p0(i64 4, ptr %8) #15
  call void @llvm.lifetime.end.p0(i64 8, ptr %7) #15
  call void @llvm.lifetime.end.p0(i64 8, ptr %6) #15
  call void @llvm.lifetime.end.p0(i64 4, ptr %5) #15
  call void @llvm.lifetime.end.p0(i64 8, ptr %4) #15
  call void @llvm.lifetime.end.p0(i64 24, ptr %3) #15
  ret void
}