; Function Attrs: mustprogress nounwind uwtable
define void @_Z24Glucose2_QuantifyAigTestP10Gia_Man_t_(ptr noundef %0) local_unnamed_addr #0 {
  %2 = alloca %struct.timespec, align 8
  %3 = alloca %struct.timespec, align 8
  %4 = alloca %struct.timespec, align 8
  %5 = alloca %struct.timespec, align 8
  %6 = alloca [3 x ptr], align 16
  call void @llvm.lifetime.start.p0(i64 24, ptr nonnull %6) #30
  %7 = tail call noalias noundef nonnull dereferenceable(1688) ptr @_Znwm(i64 noundef 1688) #29
  tail call void @_ZN6Gluco210SimpSolverC1Ev(ptr noundef nonnull align 8 dereferenceable(1684) %7) #30
  tail call void @_ZN6Gluco26Solver18setIncrementalModeEv(ptr noundef nonnull align 8 dereferenceable(1416) %7) #30
  store ptr %7, ptr %6, align 16, !tbaa !164
  %8 = getelementptr inbounds nuw i8, ptr %6, i64 8
  %9 = tail call noalias noundef nonnull dereferenceable(1688) ptr @_Znwm(i64 noundef 1688) #29
  tail call void @_ZN6Gluco210SimpSolverC1Ev(ptr noundef nonnull align 8 dereferenceable(1684) %9) #30
  tail call void @_ZN6Gluco26Solver18setIncrementalModeEv(ptr noundef nonnull align 8 dereferenceable(1416) %9) #30
  store ptr %9, ptr %8, align 8, !tbaa !164
  %10 = getelementptr inbounds nuw i8, ptr %6, i64 16
  %11 = tail call noalias noundef nonnull dereferenceable(1688) ptr @_Znwm(i64 noundef 1688) #29
  tail call void @_ZN6Gluco210SimpSolverC1Ev(ptr noundef nonnull align 8 dereferenceable(1684) %11) #30
  tail call void @_ZN6Gluco26Solver18setIncrementalModeEv(ptr noundef nonnull align 8 dereferenceable(1416) %11) #30
  store ptr %11, ptr %10, align 16, !tbaa !164
  call void @llvm.lifetime.start.p0(i64 16, ptr nonnull %5) #30
  %12 = call i32 @clock_gettime(i32 noundef 1, ptr noundef nonnull %5) #30
  %13 = icmp slt i32 %12, 0
  br i1 %13, label %_ZL9Abc_Clockv.exit, label %14

14:                                               ; preds = %1
  %15 = load i64, ptr %5, align 8, !tbaa !117
  %.neg31 = mul i64 %15, -1000000
  %16 = getelementptr inbounds nuw i8, ptr %5, i64 8
  %17 = load i64, ptr %16, align 8, !tbaa !119
  %.neg = sdiv i64 %17, -1000
  %.neg32 = add i64 %.neg, %.neg31
  br label %_ZL9Abc_Clockv.exit

_ZL9Abc_Clockv.exit:                              ; preds = %1, %14
  %.0.i.neg = phi i64 [ %.neg32, %14 ], [ 1, %1 ]
  call void @llvm.lifetime.end.p0(i64 16, ptr nonnull %5) #30
  %18 = getelementptr i8, ptr %0, i64 32
  %.val18 = load ptr, ptr %18, align 8, !tbaa !174
  %19 = getelementptr i8, ptr %0, i64 72
  %.val19 = load ptr, ptr %19, align 8, !tbaa !182
  %20 = getelementptr i8, ptr %.val19, i64 8
  %.val19.val = load ptr, ptr %20, align 8, !tbaa !151
  %21 = load i32, ptr %.val19.val, align 4, !tbaa !6
  %22 = sext i32 %21 to i64
  %23 = getelementptr inbounds %struct.Gia_Obj_t_, ptr %.val18, i64 %22
  %.val3.i.i = load i64, ptr %23, align 4
  %24 = trunc i64 %.val3.i.i to i32
  %25 = and i32 %24, 536870911
  %26 = sub nsw i32 %21, %25
  %27 = lshr i32 %24, 29
  %28 = and i32 %27, 1
  %29 = shl nsw i32 %26, 1
  %30 = or disjoint i32 %29, %28
  %31 = call i32 @bmcg2_sat_solver_quantify(ptr noundef nonnull %6, ptr noundef %0, i32 noundef %30, i32 noundef 0, ptr noundef nonnull @_Z18Gia_ManCiIsToKeep2Pvi, ptr noundef null, ptr noundef null)
  call void @llvm.lifetime.start.p0(i64 16, ptr nonnull %4) #30
  %32 = call i32 @clock_gettime(i32 noundef 1, ptr noundef nonnull %4) #30
  %33 = icmp slt i32 %32, 0
  br i1 %33, label %_ZL9Abc_Clockv.exit23, label %34

34:                                               ; preds = %_ZL9Abc_Clockv.exit
  %35 = load i64, ptr %4, align 8, !tbaa !117
  %36 = mul nsw i64 %35, 1000000
  %37 = getelementptr inbounds nuw i8, ptr %4, i64 8
  %38 = load i64, ptr %37, align 8, !tbaa !119
  %39 = sdiv i64 %38, 1000
  %40 = add nsw i64 %39, %36
  br label %_ZL9Abc_Clockv.exit23

_ZL9Abc_Clockv.exit23:                            ; preds = %_ZL9Abc_Clockv.exit, %34
  %.0.i22 = phi i64 [ %40, %34 ], [ -1, %_ZL9Abc_Clockv.exit ]
  call void @llvm.lifetime.end.p0(i64 16, ptr nonnull %4) #30
  call void @llvm.lifetime.start.p0(i64 16, ptr nonnull %3) #30
  %41 = call i32 @clock_gettime(i32 noundef 1, ptr noundef nonnull %3) #30
  %42 = icmp slt i32 %41, 0
  br i1 %42, label %_ZL9Abc_Clockv.exit25, label %43

43:                                               ; preds = %_ZL9Abc_Clockv.exit23
  %44 = load i64, ptr %3, align 8, !tbaa !117
  %.neg34 = mul i64 %44, -1000000
  %45 = getelementptr inbounds nuw i8, ptr %3, i64 8
  %46 = load i64, ptr %45, align 8, !tbaa !119
  %.neg33 = sdiv i64 %46, -1000
  %.neg35 = add i64 %.neg33, %.neg34
  br label %_ZL9Abc_Clockv.exit25

_ZL9Abc_Clockv.exit25:                            ; preds = %_ZL9Abc_Clockv.exit23, %43
  %.0.i24.neg = phi i64 [ %.neg35, %43 ], [ 1, %_ZL9Abc_Clockv.exit23 ]
  call void @llvm.lifetime.end.p0(i64 16, ptr nonnull %3) #30
  %.val = load ptr, ptr %18, align 8, !tbaa !174
  %.val17 = load ptr, ptr %19, align 8, !tbaa !182
  %47 = getelementptr i8, ptr %.val17, i64 8
  %.val17.val = load ptr, ptr %47, align 8, !tbaa !151
  %48 = load i32, ptr %.val17.val, align 4, !tbaa !6
  %49 = sext i32 %48 to i64
  %50 = getelementptr inbounds %struct.Gia_Obj_t_, ptr %.val, i64 %49
  %.val3.i.i26 = load i64, ptr %50, align 4
  %51 = trunc i64 %.val3.i.i26 to i32
  %52 = and i32 %51, 536870911
  %53 = sub nsw i32 %48, %52
  %54 = lshr i32 %51, 29
  %55 = and i32 %54, 1
  %56 = shl nsw i32 %53, 1
  %57 = or disjoint i32 %56, %55
  %58 = call noundef i32 @_Z26bmcg2_sat_solver_quantify2P10Gia_Man_t_iiPFiPviES1_P10Vec_Int_t_(ptr noundef nonnull %0, i32 noundef %57, i32 poison, ptr noundef nonnull @_Z18Gia_ManCiIsToKeep2Pvi, ptr noundef null, ptr noundef null)
  call void @llvm.lifetime.start.p0(i64 16, ptr nonnull %2) #30
  %59 = call i32 @clock_gettime(i32 noundef 1, ptr noundef nonnull %2) #30
  %60 = icmp slt i32 %59, 0
  br i1 %60, label %_ZL9Abc_Clockv.exit28, label %61

61:                                               ; preds = %_ZL9Abc_Clockv.exit25
  %62 = load i64, ptr %2, align 8, !tbaa !117
  %63 = mul nsw i64 %62, 1000000
  %64 = getelementptr inbounds nuw i8, ptr %2, i64 8
  %65 = load i64, ptr %64, align 8, !tbaa !119
  %66 = sdiv i64 %65, 1000
  %67 = add nsw i64 %66, %63
  br label %_ZL9Abc_Clockv.exit28

_ZL9Abc_Clockv.exit28:                            ; preds = %_ZL9Abc_Clockv.exit25, %61
  %.0.i27 = phi i64 [ %67, %61 ], [ -1, %_ZL9Abc_Clockv.exit25 ]
  %68 = add i64 %.0.i22, %.0.i.neg
  call void @llvm.lifetime.end.p0(i64 16, ptr nonnull %2) #30
  %69 = add i64 %.0.i27, %.0.i24.neg
  call void (i32, ptr, ...) @_ZL9Abc_PrintiPKcz(i32 poison, ptr noundef nonnull @.str.39, ptr noundef nonnull @.str.29)
  %70 = sitofp i64 %68 to double
  %71 = fdiv double %70, 1.000000e+06
  call void (i32, ptr, ...) @_ZL9Abc_PrintiPKcz(i32 poison, ptr noundef nonnull @.str.40, double noundef %71)
  call void (i32, ptr, ...) @_ZL9Abc_PrintiPKcz(i32 poison, ptr noundef nonnull @.str.39, ptr noundef nonnull @.str.30)
  %72 = sitofp i64 %69 to double
  %73 = fdiv double %72, 1.000000e+06
  call void (i32, ptr, ...) @_ZL9Abc_PrintiPKcz(i32 poison, ptr noundef nonnull @.str.40, double noundef %73)
  %74 = call i32 @bmcg2_sat_solver_equiv_overlap_check(ptr noundef nonnull %11, ptr noundef nonnull %0, i32 noundef %31, i32 noundef %58, i32 noundef 1)
  %.not = icmp eq i32 %74, 0
  %str.3.str.4 = select i1 %.not, ptr @str.5, ptr @str.6
  %puts = call i32 @puts(ptr nonnull dereferenceable(1) %str.3.str.4)
  call fastcc void @_ZL15Gia_ManAppendCoP10Gia_Man_t_i(ptr noundef nonnull %0, i32 noundef %31)
  call fastcc void @_ZL15Gia_ManAppendCoP10Gia_Man_t_i(ptr noundef nonnull %0, i32 noundef %58)
  %75 = load ptr, ptr %7, align 8, !tbaa !3
  %76 = getelementptr inbounds nuw i8, ptr %75, i64 8
  %77 = load ptr, ptr %76, align 8
  call void %77(ptr noundef nonnull align 8 dereferenceable(1684) %7) #30
  %78 = load ptr, ptr %9, align 8, !tbaa !3
  %79 = getelementptr inbounds nuw i8, ptr %78, i64 8
  %80 = load ptr, ptr %79, align 8
  call void %80(ptr noundef nonnull align 8 dereferenceable(1684) %9) #30
  %81 = load ptr, ptr %11, align 8, !tbaa !3
  %82 = getelementptr inbounds nuw i8, ptr %81, i64 8
  %83 = load ptr, ptr %82, align 8
  call void %83(ptr noundef nonnull align 8 dereferenceable(1684) %11) #30
  call void @llvm.lifetime.end.p0(i64 24, ptr nonnull %6) #30
  ret void
}